target datalayout = "e-m:e-p270:32:32-p271:32:32-p272:64:64-i64:64-i128:128-f80:128-n8:16:32:64-S128"
target triple = "x86_64-pc-linux-gnu"

; Function Attrs: alwaysinline nounwind willreturn memory(none) uwtable
define internal i32 @ff_clz_c(i32 noundef %0) #7 {
  %2 = alloca i32, align 4
  %3 = alloca i32, align 4
  store i32 %0, ptr %2, align 4, !tbaa !24
  call void @llvm.lifetime.start.p0(i64 4, ptr %3) #8
  store i32 32, ptr %3, align 4, !tbaa !24
  br label %4

4:                                                ; preds = %7, %1
  %5 = load i32, ptr %2, align 4, !tbaa !24
  %6 = icmp ne i32 %5, 0
  br i1 %6, label %7, label %12

7:                                                ; preds = %4
  %8 = load i32, ptr %2, align 4, !tbaa !24
  %9 = lshr i32 %8, 1
  store i32 %9, ptr %2, align 4, !tbaa !24
  %10 = load i32, ptr %3, align 4, !tbaa !24
  %11 = add i32 %10, -1
  store i32 %11, ptr %3, align 4, !tbaa !24
  br label %4, !llvm.loop !54

12:                                               ; preds = %4
  %13 = load i32, ptr %3, align 4, !tbaa !24
  call void @llvm.lifetime.end.p0(i64 4, ptr %3) #8
  ret i32 %13
}

; Function Attrs: nounwind uwtable
define internal void @sbc_calc_scalefactors(ptr noundef %0, ptr noundef %1, i32 noundef %2, i32 noundef %3, i32 noundef %4) #1 {
  %6 = alloca ptr, align 8
  %7 = alloca ptr, align 8
  %8 = alloca i32, align 4
  %9 = alloca i32, align 4
  %10 = alloca i32, align 4
  %11 = alloca i32, align 4
  %12 = alloca i32, align 4
  %13 = alloca i32, align 4
  %14 = alloca i32, align 4
  %15 = alloca i32, align 4
  store ptr %0, ptr %6, align 8, !tbaa !22
  store ptr %1, ptr %7, align 8, !tbaa !22
  store i32 %2, ptr %8, align 4, !tbaa !24
  store i32 %3, ptr %9, align 4, !tbaa !24
  store i32 %4, ptr %10, align 4, !tbaa !24
  call void @llvm.lifetime.start.p0(i64 4, ptr %11) #8
  call void @llvm.lifetime.start.p0(i64 4, ptr %12) #8
  call void @llvm.lifetime.start.p0(i64 4, ptr %13) #8
  store i32 0, ptr %11, align 4, !tbaa !24
  br label %16

16:                                               ; preds = %96, %5
  %17 = load i32, ptr %11, align 4, !tbaa !24
  %18 = load i32, ptr %9, align 4, !tbaa !24
  %19 = icmp slt i32 %17, %18
  br i1 %19, label %20, label %99

20:                                               ; preds = %16
  store i32 0, ptr %12, align 4, !tbaa !24
  br label %21

21:                                               ; preds = %92, %20
  %22 = load i32, ptr %12, align 4, !tbaa !24
  %23 = load i32, ptr %10, align 4, !tbaa !24
  %24 = icmp slt i32 %22, %23
  br i1 %24, label %25, label %95

25:                                               ; preds = %21
  call void @llvm.lifetime.start.p0(i64 4, ptr %14) #8
  store i32 32768, ptr %14, align 4, !tbaa !24
  store i32 0, ptr %13, align 4, !tbaa !24
  br label %26

26:                                               ; preds = %78, %25
  %27 = load i32, ptr %13, align 4, !tbaa !24
  %28 = load i32, ptr %8, align 4, !tbaa !24
  %29 = icmp slt i32 %27, %28
  br i1 %29, label %30, label %81

30:                                               ; preds = %26
  call void @llvm.lifetime.start.p0(i64 4, ptr %15) #8
  %31 = load ptr, ptr %6, align 8, !tbaa !22
  %32 = load i32, ptr %13, align 4, !tbaa !24
  %33 = sext i32 %32 to i64
  %34 = getelementptr inbounds [2 x [8 x i32]], ptr %31, i64 %33
  %35 = load i32, ptr %11, align 4, !tbaa !24
  %36 = sext i32 %35 to i64
  %37 = getelementptr inbounds [2 x [8 x i32]], ptr %34, i64 0, i64 %36
  %38 = load i32, ptr %12, align 4, !tbaa !24
  %39 = sext i32 %38 to i64
  %40 = getelementptr inbounds [8 x i32], ptr %37, i64 0, i64 %39
  %41 = load i32, ptr %40, align 4, !tbaa !24
  %42 = icmp sge i32 %41, 0
  br i1 %42, label %43, label %55

43:                                               ; preds = %30
  %44 = load ptr, ptr %6, align 8, !tbaa !22
  %45 = load i32, ptr %13, align 4, !tbaa !24
  %46 = sext i32 %45 to i64
  %47 = getelementptr inbounds [2 x [8 x i32]], ptr %44, i64 %46
  %48 = load i32, ptr %11, align 4, !tbaa !24
  %49 = sext i32 %48 to i64
  %50 = getelementptr inbounds [2 x [8 x i32]], ptr %47, i64 0, i64 %49
  %51 = load i32, ptr %12, align 4, !tbaa !24
  %52 = sext i32 %51 to i64
  %53 = getelementptr inbounds [8 x i32], ptr %50, i64 0, i64 %52
  %54 = load i32, ptr %53, align 4, !tbaa !24
  br label %68

55:                                               ; preds = %30
  %56 = load ptr, ptr %6, align 8, !tbaa !22
  %57 = load i32, ptr %13, align 4, !tbaa !24
  %58 = sext i32 %57 to i64
  %59 = getelementptr inbounds [2 x [8 x i32]], ptr %56, i64 %58
  %60 = load i32, ptr %11, align 4, !tbaa !24
  %61 = sext i32 %60 to i64
  %62 = getelementptr inbounds [2 x [8 x i32]], ptr %59, i64 0, i64 %61
  %63 = load i32, ptr %12, align 4, !tbaa !24
  %64 = sext i32 %63 to i64
  %65 = getelementptr inbounds [8 x i32], ptr %62, i64 0, i64 %64
  %66 = load i32, ptr %65, align 4, !tbaa !24
  %67 = sub nsw i32 0, %66
  br label %68

68:                                               ; preds = %55, %43
  %69 = phi i32 [ %54, %43 ], [ %67, %55 ]
  store i32 %69, ptr %15, align 4, !tbaa !24
  %70 = load i32, ptr %15, align 4, !tbaa !24
  %71 = icmp ne i32 %70, 0
  br i1 %71, label %72, label %77

72:                                               ; preds = %68
  %73 = load i32, ptr %15, align 4, !tbaa !24
  %74 = sub nsw i32 %73, 1
  %75 = load i32, ptr %14, align 4, !tbaa !24
  %76 = or i32 %75, %74
  store i32 %76, ptr %14, align 4, !tbaa !24
  br label %77

77:                                               ; preds = %72, %68
  call void @llvm.lifetime.end.p0(i64 4, ptr %15) #8
  br label %78

78:                                               ; preds = %77
  %79 = load i32, ptr %13, align 4, !tbaa !24
  %80 = add nsw i32 %79, 1
  store i32 %80, ptr %13, align 4, !tbaa !24
  br label %26, !llvm.loop !39

81:                                               ; preds = %26
  %82 = load i32, ptr %14, align 4, !tbaa !24
  %83 = call i32 @ff_clz_c(i32 noundef %82) #9
  %84 = sub i32 16, %83
  %85 = load ptr, ptr %7, align 8, !tbaa !22
  %86 = load i32, ptr %11, align 4, !tbaa !24
  %87 = sext i32 %86 to i64
  %88 = getelementptr inbounds [8 x i32], ptr %85, i64 %87
  %89 = load i32, ptr %12, align 4, !tbaa !24
  %90 = sext i32 %89 to i64
  %91 = getelementptr inbounds [8 x i32], ptr %88, i64 0, i64 %90
  store i32 %84, ptr %91, align 4, !tbaa !24
  call void @llvm.lifetime.end.p0(i64 4, ptr %14) #8
  br label %92

92:                                               ; preds = %81
  %93 = load i32, ptr %12, align 4, !tbaa !24
  %94 = add nsw i32 %93, 1
  store i32 %94, ptr %12, align 4, !tbaa !24
  br label %21, !llvm.loop !40

95:                                               ; preds = %21
  br label %96

96:                                               ; preds = %95
  %97 = load i32, ptr %11, align 4, !tbaa !24
  %98 = add nsw i32 %97, 1
  store i32 %98, ptr %11, align 4, !tbaa !24
  br label %16, !llvm.loop !41

99:                                               ; preds = %16
  call void @llvm.lifetime.end.p0(i64 4, ptr %13) #8
  call void @llvm.lifetime.end.p0(i64 4, ptr %12) #8
  call void @llvm.lifetime.end.p0(i64 4, ptr %11) #8
  ret void
}