; Function Attrs: nofree norecurse nosync nounwind memory(argmem: readwrite) uwtable
define internal void @sbc_calc_scalefactors(ptr noundef readonly captures(none) %0, ptr noundef writeonly captures(none) %1, i32 noundef %2, i32 noundef %3, i32 noundef %4) #1 {
  %6 = icmp sgt i32 %3, 0
  %7 = icmp sgt i32 %4, 0
  %or.cond = and i1 %6, %7
  br i1 %or.cond, label %.preheader34.lr.ph.split.us, label %._crit_edge44

.preheader34.lr.ph.split.us:                      ; preds = %5
  %8 = icmp sgt i32 %2, 0
  %wide.trip.count75 = zext nneg i32 %3 to i64
  %wide.trip.count70 = zext nneg i32 %4 to i64
  br i1 %8, label %.preheader34.us.us.preheader, label %.preheader34.us

.preheader34.us.us.preheader:                     ; preds = %.preheader34.lr.ph.split.us
  %wide.trip.count65 = zext nneg i32 %2 to i64
  br label %.preheader34.us.us

.preheader34.us.us:                               ; preds = %.preheader34.us.us.preheader, %._crit_edge.split.us.us.us
  %indvars.iv72 = phi i64 [ 0, %.preheader34.us.us.preheader ], [ %indvars.iv.next73, %._crit_edge.split.us.us.us ]
  br label %.preheader33.us.us.us

.preheader33.us.us.us:                            ; preds = %ff_clz_c.exit.us.us.us, %.preheader34.us.us
  %indvars.iv67 = phi i64 [ %indvars.iv.next68, %ff_clz_c.exit.us.us.us ], [ 0, %.preheader34.us.us ]
  br label %12

ff_clz_c.exit.us.us.us:                           ; preds = %12
  %9 = tail call range(i32 0, 33) i32 @llvm.ctlz.i32(i32 %.1.us.us.us, i1 true)
  %10 = sub nuw nsw i32 16, %9
  %11 = getelementptr inbounds nuw [8 x i32], ptr %1, i64 %indvars.iv72, i64 %indvars.iv67
  store i32 %10, ptr %11, align 4, !tbaa !18
  %indvars.iv.next68 = add nuw nsw i64 %indvars.iv67, 1
  %exitcond71.not = icmp eq i64 %indvars.iv.next68, %wide.trip.count70
  br i1 %exitcond71.not, label %._crit_edge.split.us.us.us, label %.preheader33.us.us.us, !llvm.loop !37

12:                                               ; preds = %12, %.preheader33.us.us.us
  %indvars.iv62 = phi i64 [ %indvars.iv.next63, %12 ], [ 0, %.preheader33.us.us.us ]
  %.02736.us.us.us = phi i32 [ %.1.us.us.us, %12 ], [ 32768, %.preheader33.us.us.us ]
  %13 = getelementptr inbounds nuw [2 x [8 x i32]], ptr %0, i64 %indvars.iv62, i64 %indvars.iv72, i64 %indvars.iv67
  %14 = load i32, ptr %13, align 4, !tbaa !18
  %15 = tail call i32 @llvm.abs.i32(i32 %14, i1 true)
  %.not.us.us.us = icmp eq i32 %14, 0
  %16 = add nsw i32 %15, -1
  %17 = select i1 %.not.us.us.us, i32 0, i32 %16
  %.1.us.us.us = or i32 %17, %.02736.us.us.us
  %indvars.iv.next63 = add nuw nsw i64 %indvars.iv62, 1
  %exitcond66.not = icmp eq i64 %indvars.iv.next63, %wide.trip.count65
  br i1 %exitcond66.not, label %ff_clz_c.exit.us.us.us, label %12, !llvm.loop !38

._crit_edge.split.us.us.us:                       ; preds = %ff_clz_c.exit.us.us.us
  %indvars.iv.next73 = add nuw nsw i64 %indvars.iv72, 1
  %exitcond76.not = icmp eq i64 %indvars.iv.next73, %wide.trip.count75
  br i1 %exitcond76.not, label %._crit_edge44, label %.preheader34.us.us, !llvm.loop !39

.preheader34.us:                                  ; preds = %.preheader34.lr.ph.split.us, %._crit_edge.split.us52
  %indvars.iv57 = phi i64 [ %indvars.iv.next58, %._crit_edge.split.us52 ], [ 0, %.preheader34.lr.ph.split.us ]
  br label %.preheader33.us48

.preheader33.us48:                                ; preds = %.preheader34.us, %.preheader33.us48
  %indvars.iv = phi i64 [ 0, %.preheader34.us ], [ %indvars.iv.next, %.preheader33.us48 ]
  %18 = getelementptr inbounds nuw [8 x i32], ptr %1, i64 %indvars.iv57, i64 %indvars.iv
  store i32 0, ptr %18, align 4, !tbaa !18
  %indvars.iv.next = add nuw nsw i64 %indvars.iv, 1
  %exitcond.not = icmp eq i64 %indvars.iv.next, %wide.trip.count70
  br i1 %exitcond.not, label %._crit_edge.split.us52, label %.preheader33.us48, !llvm.loop !37

._crit_edge.split.us52:                           ; preds = %.preheader33.us48
  %indvars.iv.next58 = add nuw nsw i64 %indvars.iv57, 1
  %exitcond61.not = icmp eq i64 %indvars.iv.next58, %wide.trip.count75
  br i1 %exitcond61.not, label %._crit_edge44, label %.preheader34.us, !llvm.loop !39

._crit_edge44:                                    ; preds = %._crit_edge.split.us52, %._crit_edge.split.us.us.us, %5
  ret void
}